target datalayout = "e-m:e-p270:32:32-p271:32:32-p272:64:64-i64:64-i128:128-f80:128-n8:16:32:64-S128"
target triple = "x86_64-pc-linux-gnu"

%struct._structmodulestate = type { ptr, ptr, ptr, ptr }
%struct._formatdef = type { i8, i64, i64, ptr, ptr }

@PyExc_OverflowError = external global ptr, align 8
@.str.51 = private unnamed_addr constant [40 x i8] c"'%c' format requires 0 <= number <= %zu\00", align 1
@.str.52 = private unnamed_addr constant [42 x i8] c"'%c' format requires %zd <= number <= %zd\00", align 1

; Function Attrs: nounwind uwtable
define internal i32 @_range_error(ptr noundef %0, ptr noundef %1, i32 noundef %2) #0 {
  %4 = alloca ptr, align 8
  %5 = alloca ptr, align 8
  %6 = alloca i32, align 4
  %7 = alloca i64, align 8
  %8 = alloca i64, align 8
  store ptr %0, ptr %4, align 8, !tbaa !8
  store ptr %1, ptr %5, align 8, !tbaa !49
  store i32 %2, ptr %6, align 4, !tbaa !11
  call void @llvm.lifetime.start.p0(i64 8, ptr %7) #8
  %9 = load ptr, ptr %5, align 8, !tbaa !49
  %10 = getelementptr inbounds nuw %struct._formatdef, ptr %9, i32 0, i32 1
  %11 = load i64, ptr %10, align 8, !tbaa !75
  %12 = sub i64 8, %11
  %13 = mul i64 %12, 8
  %14 = lshr i64 -1, %13
  store i64 %14, ptr %7, align 8, !tbaa !18
  %15 = load i32, ptr %6, align 4, !tbaa !11
  %16 = icmp ne i32 %15, 0
  br i1 %16, label %17, label %27

17:                                               ; preds = %3
  %18 = load ptr, ptr %4, align 8, !tbaa !8
  %19 = getelementptr inbounds nuw %struct._structmodulestate, ptr %18, i32 0, i32 3
  %20 = load ptr, ptr %19, align 8, !tbaa !15
  %21 = load ptr, ptr %5, align 8, !tbaa !49
  %22 = getelementptr inbounds nuw %struct._formatdef, ptr %21, i32 0, i32 0
  %23 = load i8, ptr %22, align 8, !tbaa !52
  %24 = sext i8 %23 to i32
  %25 = load i64, ptr %7, align 8, !tbaa !18
  %26 = call ptr (ptr, ptr, ...) @PyErr_Format(ptr noundef %20, ptr noundef @.str.51, i32 noundef %24, i64 noundef %25)
  br label %41

27:                                               ; preds = %3
  call void @llvm.lifetime.start.p0(i64 8, ptr %8) #8
  %28 = load i64, ptr %7, align 8, !tbaa !18
  %29 = lshr i64 %28, 1
  store i64 %29, ptr %8, align 8, !tbaa !18
  %30 = load ptr, ptr %4, align 8, !tbaa !8
  %31 = getelementptr inbounds nuw %struct._structmodulestate, ptr %30, i32 0, i32 3
  %32 = load ptr, ptr %31, align 8, !tbaa !15
  %33 = load ptr, ptr %5, align 8, !tbaa !49
  %34 = getelementptr inbounds nuw %struct._formatdef, ptr %33, i32 0, i32 0
  %35 = load i8, ptr %34, align 8, !tbaa !52
  %36 = sext i8 %35 to i32
  %37 = load i64, ptr %8, align 8, !tbaa !18
  %38 = xor i64 %37, -1
  %39 = load i64, ptr %8, align 8, !tbaa !18
  %40 = call ptr (ptr, ptr, ...) @PyErr_Format(ptr noundef %32, ptr noundef @.str.52, i32 noundef %36, i64 noundef %38, i64 noundef %39)
  call void @llvm.lifetime.end.p0(i64 8, ptr %8) #8
  br label %41

41:                                               ; preds = %27, %17
  call void @llvm.lifetime.end.p0(i64 8, ptr %7) #8
  ret i32 -1
}

; Function Attrs: nounwind uwtable
define internal i32 @lp_int(ptr noundef %0, ptr noundef %1, ptr noundef %2, ptr noundef %3) #0 {
  %5 = alloca i32, align 4
  %6 = alloca ptr, align 8
  %7 = alloca ptr, align 8
  %8 = alloca ptr, align 8
  %9 = alloca ptr, align 8
  %10 = alloca i64, align 8
  %11 = alloca i64, align 8
  %12 = alloca ptr, align 8
  %13 = alloca i32, align 4
  store ptr %0, ptr %6, align 8, !tbaa !8
  store ptr %1, ptr %7, align 8, !tbaa !43
  store ptr %2, ptr %8, align 8, !tbaa !3
  store ptr %3, ptr %9, align 8, !tbaa !49
  call void @llvm.lifetime.start.p0(i64 8, ptr %10) #8
  call void @llvm.lifetime.start.p0(i64 8, ptr %11) #8
  call void @llvm.lifetime.start.p0(i64 8, ptr %12) #8
  %14 = load ptr, ptr %7, align 8, !tbaa !43
  store ptr %14, ptr %12, align 8, !tbaa !43
  %15 = load ptr, ptr %6, align 8, !tbaa !8
  %16 = load ptr, ptr %8, align 8, !tbaa !3
  %17 = call i32 @get_long(ptr noundef %15, ptr noundef %16, ptr noundef %10)
  %18 = icmp slt i32 %17, 0
  br i1 %18, label %19, label %28

19:                                               ; preds = %4
  %20 = load ptr, ptr @PyExc_OverflowError, align 8, !tbaa !3
  %21 = call i32 @PyErr_ExceptionMatches(ptr noundef %20)
  %22 = icmp ne i32 %21, 0
  br i1 %22, label %23, label %27

23:                                               ; preds = %19
  %24 = load ptr, ptr %6, align 8, !tbaa !8
  %25 = load ptr, ptr %9, align 8, !tbaa !49
  %26 = call i32 @_range_error(ptr noundef %24, ptr noundef %25, i32 noundef 0)
  store i32 %26, ptr %5, align 4
  store i32 1, ptr %13, align 4
  br label %76

27:                                               ; preds = %19
  store i32 -1, ptr %5, align 4
  store i32 1, ptr %13, align 4
  br label %76

28:                                               ; preds = %4
  %29 = load ptr, ptr %9, align 8, !tbaa !49
  %30 = getelementptr inbounds nuw %struct._formatdef, ptr %29, i32 0, i32 1
  %31 = load i64, ptr %30, align 8, !tbaa !75
  store i64 %31, ptr %11, align 8, !tbaa !18
  %32 = load i64, ptr %11, align 8, !tbaa !18
  %33 = icmp ne i64 %32, 8
  br i1 %33, label %34, label %62

34:                                               ; preds = %28
  %35 = load i64, ptr %11, align 8, !tbaa !18
  %36 = icmp eq i64 %35, 2
  br i1 %36, label %37, label %47

37:                                               ; preds = %34
  %38 = load i64, ptr %10, align 8, !tbaa !18
  %39 = icmp slt i64 %38, -32768
  br i1 %39, label %43, label %40

40:                                               ; preds = %37
  %41 = load i64, ptr %10, align 8, !tbaa !18
  %42 = icmp sgt i64 %41, 32767
  br i1 %42, label %43, label %47

43:                                               ; preds = %40, %37
  %44 = load ptr, ptr %6, align 8, !tbaa !8
  %45 = load ptr, ptr %9, align 8, !tbaa !49
  %46 = call i32 @_range_error(ptr noundef %44, ptr noundef %45, i32 noundef 0)
  store i32 %46, ptr %5, align 4
  store i32 1, ptr %13, align 4
  br label %76

47:                                               ; preds = %40, %34
  %48 = load i64, ptr %11, align 8, !tbaa !18
  %49 = icmp eq i64 %48, 4
  br i1 %49, label %50, label %60

50:                                               ; preds = %47
  %51 = load i64, ptr %10, align 8, !tbaa !18
  %52 = icmp slt i64 %51, -2147483648
  br i1 %52, label %56, label %53

53:                                               ; preds = %50
  %54 = load i64, ptr %10, align 8, !tbaa !18
  %55 = icmp sgt i64 %54, 2147483647
  br i1 %55, label %56, label %60

56:                                               ; preds = %53, %50
  %57 = load ptr, ptr %6, align 8, !tbaa !8
  %58 = load ptr, ptr %9, align 8, !tbaa !49
  %59 = call i32 @_range_error(ptr noundef %57, ptr noundef %58, i32 noundef 0)
  store i32 %59, ptr %5, align 4
  store i32 1, ptr %13, align 4
  br label %76

60:                                               ; preds = %53, %47
  br label %61

61:                                               ; preds = %60
  br label %62

62:                                               ; preds = %61, %28
  br label %63

63:                                               ; preds = %71, %62
  %64 = load i64, ptr %10, align 8, !tbaa !18
  %65 = and i64 %64, 255
  %66 = trunc i64 %65 to i8
  %67 = load ptr, ptr %12, align 8, !tbaa !43
  %68 = getelementptr i8, ptr %67, i32 1
  store ptr %68, ptr %12, align 8, !tbaa !43
  store i8 %66, ptr %67, align 1, !tbaa !32
  %69 = load i64, ptr %10, align 8, !tbaa !18
  %70 = ashr i64 %69, 8
  store i64 %70, ptr %10, align 8, !tbaa !18
  br label %71

71:                                               ; preds = %63
  %72 = load i64, ptr %11, align 8, !tbaa !18
  %73 = add i64 %72, -1
  store i64 %73, ptr %11, align 8, !tbaa !18
  %74 = icmp sgt i64 %73, 0
  br i1 %74, label %63, label %75, !llvm.loop !115

75:                                               ; preds = %71
  store i32 0, ptr %5, align 4
  store i32 1, ptr %13, align 4
  br label %76

76:                                               ; preds = %75, %56, %43, %27, %23
  call void @llvm.lifetime.end.p0(i64 8, ptr %12) #8
  call void @llvm.lifetime.end.p0(i64 8, ptr %11) #8
  call void @llvm.lifetime.end.p0(i64 8, ptr %10) #8
  %77 = load i32, ptr %5, align 4
  ret i32 %77
}