; Function Attrs: nounwind uwtable
define internal range(i32 -1, 1) i32 @lp_int(ptr noundef readonly captures(none) %0, ptr noundef writeonly captures(none) %1, ptr noundef %2, ptr noundef readonly captures(none) %3) #0 {
  %5 = alloca i64, align 8
  call void @llvm.lifetime.start.p0(i64 8, ptr nonnull %5) #7
  %6 = call fastcc i32 @get_long(ptr noundef %0, ptr noundef %2, ptr noundef %5)
  %7 = icmp slt i32 %6, 0
  br i1 %7, label %8, label %23

8:                                                ; preds = %4
  %9 = load ptr, ptr @PyExc_OverflowError, align 8, !tbaa !17
  %10 = tail call i32 @PyErr_ExceptionMatches(ptr noundef %9) #7
  %.not21 = icmp eq i32 %10, 0
  br i1 %.not21, label %.loopexit, label %11

11:                                               ; preds = %8
  %12 = getelementptr inbounds nuw i8, ptr %3, i64 8
  %13 = load i64, ptr %12, align 8, !tbaa !67
  %14 = shl i64 %13, 3
  %15 = sub i64 64, %14
  %16 = getelementptr inbounds nuw i8, ptr %0, i64 24
  %17 = load ptr, ptr %16, align 8, !tbaa !16
  %18 = load i8, ptr %3, align 8, !tbaa !49
  %19 = sext i8 %18 to i32
  %20 = lshr i64 9223372036854775807, %15
  %21 = ashr exact i64 -9223372036854775808, %15
  %22 = tail call ptr (ptr, ptr, ...) @PyErr_Format(ptr noundef %17, ptr noundef nonnull @.str.52, i32 noundef %19, i64 noundef %21, i64 noundef %20) #7
  br label %.loopexit

23:                                               ; preds = %4
  %24 = getelementptr inbounds nuw i8, ptr %3, i64 8
  %25 = load i64, ptr %24, align 8, !tbaa !67
  %.promoted.pre = load i64, ptr %5, align 8, !tbaa !81
  switch i64 %25, label %._crit_edge.preheader [
    i64 4, label %34
    i64 2, label %26
  ]

26:                                               ; preds = %23
  %27 = add i64 %.promoted.pre, -32768
  %or.cond = icmp ult i64 %27, -65536
  br i1 %or.cond, label %28, label %._crit_edge.preheader

28:                                               ; preds = %26
  %29 = getelementptr inbounds nuw i8, ptr %0, i64 24
  %30 = load ptr, ptr %29, align 8, !tbaa !16
  %31 = load i8, ptr %3, align 8, !tbaa !49
  %32 = sext i8 %31 to i32
  %33 = tail call ptr (ptr, ptr, ...) @PyErr_Format(ptr noundef %30, ptr noundef nonnull @.str.52, i32 noundef %32, i64 noundef -32768, i64 noundef 32767) #7
  br label %.loopexit

34:                                               ; preds = %23
  %35 = add i64 %.promoted.pre, -2147483648
  %or.cond3 = icmp ult i64 %35, -4294967296
  br i1 %or.cond3, label %36, label %._crit_edge.preheader

._crit_edge.preheader:                            ; preds = %23, %26, %34
  br label %._crit_edge

36:                                               ; preds = %34
  %37 = getelementptr inbounds nuw i8, ptr %0, i64 24
  %38 = load ptr, ptr %37, align 8, !tbaa !16
  %39 = load i8, ptr %3, align 8, !tbaa !49
  %40 = sext i8 %39 to i32
  %41 = tail call ptr (ptr, ptr, ...) @PyErr_Format(ptr noundef %38, ptr noundef nonnull @.str.52, i32 noundef %40, i64 noundef -2147483648, i64 noundef 2147483647) #7
  br label %.loopexit

._crit_edge:                                      ; preds = %._crit_edge.preheader, %._crit_edge
  %42 = phi i64 [ %45, %._crit_edge ], [ %.promoted.pre, %._crit_edge.preheader ]
  %.018 = phi i64 [ %46, %._crit_edge ], [ %25, %._crit_edge.preheader ]
  %.0 = phi ptr [ %44, %._crit_edge ], [ %1, %._crit_edge.preheader ]
  %43 = trunc i64 %42 to i8
  %44 = getelementptr i8, ptr %.0, i64 1
  store i8 %43, ptr %.0, align 1, !tbaa !18
  %45 = ashr i64 %42, 8
  %46 = add i64 %.018, -1
  %47 = icmp sgt i64 %46, 0
  br i1 %47, label %._crit_edge, label %.loopexit, !llvm.loop !92

.loopexit:                                        ; preds = %._crit_edge, %8, %36, %28, %11
  %.019 = phi i32 [ -1, %11 ], [ -1, %28 ], [ -1, %36 ], [ -1, %8 ], [ 0, %._crit_edge ]
  call void @llvm.lifetime.end.p0(i64 8, ptr nonnull %5) #7
  ret i32 %.019
}